; Function Attrs: mustprogress uwtable
define void @_ZN8QuantLib3Gsr16updateVolatilityEv(ptr noundef nonnull align 8 dereferenceable(368) %this) local_unnamed_addr #1 align 2 {
entry:
  %sigma_ = getelementptr inbounds nuw i8, ptr %this, i64 216
  %0 = load ptr, ptr %sigma_, align 8, !tbaa !140
  %n_.i.i4 = getelementptr inbounds nuw i8, ptr %0, i64 24
  %1 = load i64, ptr %n_.i.i4, align 8, !tbaa !138
  %cmp5.not = icmp eq i64 %1, 0
  br i1 %cmp5.not, label %for.cond.cleanup, label %for.body.lr.ph

for.body.lr.ph:                                   ; preds = %entry
  %volatilities_ = getelementptr inbounds nuw i8, ptr %this, i64 224
  br label %for.body

for.cond.cleanup:                                 ; preds = %_ZNK5boost10shared_ptrIN8QuantLib5QuoteEEptEv.exit, %entry
  %vtable7 = load ptr, ptr %this, align 8, !tbaa !14
  %vfn8 = getelementptr inbounds i8, ptr %vtable7, i64 48
  %2 = load ptr, ptr %vfn8, align 8
  tail call void %2(ptr noundef nonnull align 8 dereferenceable(368) %this)
  ret void

for.body:                                         ; preds = %for.body.lr.ph, %_ZNK5boost10shared_ptrIN8QuantLib5QuoteEEptEv.exit
  %3 = phi ptr [ %0, %for.body.lr.ph ], [ %9, %_ZNK5boost10shared_ptrIN8QuantLib5QuoteEEptEv.exit ]
  %i.06 = phi i64 [ 0, %for.body.lr.ph ], [ %inc, %_ZNK5boost10shared_ptrIN8QuantLib5QuoteEEptEv.exit ]
  %4 = load ptr, ptr %volatilities_, align 8, !tbaa !65
  %add.ptr.i = getelementptr inbounds nuw %"class.QuantLib::Handle.61", ptr %4, i64 %i.06
  %call4 = tail call noundef nonnull align 8 dereferenceable(16) ptr @_ZNK8QuantLib6HandleINS_5QuoteEEptEv(ptr noundef nonnull align 8 dereferenceable(16) %add.ptr.i)
  %5 = load ptr, ptr %call4, align 8, !tbaa !70
  %cmp.not.i = icmp eq ptr %5, null
  br i1 %cmp.not.i, label %cond.false.i, label %_ZNK5boost10shared_ptrIN8QuantLib5QuoteEEptEv.exit, !prof !57

cond.false.i:                                     ; preds = %for.body
  tail call void @_ZN5boost16assertion_failedEPKcS1_S1_l(ptr noundef nonnull @.str.21, ptr noundef nonnull @__PRETTY_FUNCTION__._ZNK5boost10shared_ptrIN8QuantLib5QuoteEEptEv, ptr noundef nonnull @.str.22, i64 noundef 784)
  %.pre.i = load ptr, ptr %call4, align 8, !tbaa !70
  br label %_ZNK5boost10shared_ptrIN8QuantLib5QuoteEEptEv.exit

_ZNK5boost10shared_ptrIN8QuantLib5QuoteEEptEv.exit: ; preds = %for.body, %cond.false.i
  %6 = phi ptr [ %5, %for.body ], [ %.pre.i, %cond.false.i ]
  %vtable = load ptr, ptr %6, align 8, !tbaa !14
  %vfn = getelementptr inbounds i8, ptr %vtable, i64 16
  %7 = load ptr, ptr %vfn, align 8
  %call6 = tail call noundef double %7(ptr noundef nonnull align 8 dereferenceable(8) %6)
  %params_.i = getelementptr inbounds nuw i8, ptr %3, i64 16
  %8 = load ptr, ptr %params_.i, align 8, !tbaa !18
  %arrayidx.i.i = getelementptr inbounds nuw double, ptr %8, i64 %i.06
  store double %call6, ptr %arrayidx.i.i, align 8, !tbaa !48
  %inc = add nuw i64 %i.06, 1
  %9 = load ptr, ptr %sigma_, align 8, !tbaa !140
  %n_.i.i = getelementptr inbounds nuw i8, ptr %9, i64 24
  %10 = load i64, ptr %n_.i.i, align 8, !tbaa !138
  %cmp = icmp ult i64 %inc, %10
  br i1 %cmp, label %for.body, label %for.cond.cleanup, !llvm.loop !174
}